target datalayout = "e-m:e-p270:32:32-p271:32:32-p272:64:64-i64:64-i128:128-f80:128-n8:16:32:64-S128"
target triple = "x86_64-pc-linux-gnu"

%struct.mi_os_mem_config_s = type { i64, i64, i64, i64, i64, i8, i8, i8 }

@mi_os_mem_config = internal global { i64, i64, i64, i64, i64, i8, i8, i8, [5 x i8] } { i64 4096, i64 0, i64 4096, i64 34359738368, i64 48, i8 1, i8 0, i8 1, [5 x i8] zeroinitializer }, align 8

; Function Attrs: nounwind uwtable
define hidden zeroext i1 @_mi_os_use_large_page(i64 noundef %0, i64 noundef %1) #0 {
  %3 = alloca i1, align 1
  %4 = alloca i64, align 8
  %5 = alloca i64, align 8
  store i64 %0, ptr %4, align 8, !tbaa !14
  store i64 %1, ptr %5, align 8, !tbaa !14
  %6 = load i64, ptr getelementptr inbounds nuw (%struct.mi_os_mem_config_s, ptr @mi_os_mem_config, i32 0, i32 1), align 8, !tbaa !13
  %7 = icmp eq i64 %6, 0
  br i1 %7, label %10, label %8

8:                                                ; preds = %2
  %9 = call zeroext i1 @mi_option_is_enabled(i32 noundef 6) #8
  br i1 %9, label %11, label %10

10:                                               ; preds = %8, %2
  store i1 false, ptr %3, align 1
  br label %23

11:                                               ; preds = %8
  %12 = load i64, ptr %4, align 8, !tbaa !14
  %13 = load i64, ptr getelementptr inbounds nuw (%struct.mi_os_mem_config_s, ptr @mi_os_mem_config, i32 0, i32 1), align 8, !tbaa !13
  %14 = urem i64 %12, %13
  %15 = icmp eq i64 %14, 0
  br i1 %15, label %16, label %21

16:                                               ; preds = %11
  %17 = load i64, ptr %5, align 8, !tbaa !14
  %18 = load i64, ptr getelementptr inbounds nuw (%struct.mi_os_mem_config_s, ptr @mi_os_mem_config, i32 0, i32 1), align 8, !tbaa !13
  %19 = urem i64 %17, %18
  %20 = icmp eq i64 %19, 0
  br label %21

21:                                               ; preds = %16, %11
  %22 = phi i1 [ false, %11 ], [ %20, %16 ]
  store i1 %22, ptr %3, align 1
  br label %23

23:                                               ; preds = %21, %10
  %24 = load i1, ptr %3, align 1
  ret i1 %24
}