; Function Attrs: nounwind uwtable
define hidden zeroext i1 @_mi_os_use_large_page(i64 noundef %0, i64 noundef %1) local_unnamed_addr #1 {
  %3 = load i64, ptr getelementptr inbounds nuw (i8, ptr @mi_os_mem_config, i64 8), align 8, !tbaa !13
  %4 = icmp eq i64 %3, 0
  br i1 %4, label %14, label %5

5:                                                ; preds = %2
  %6 = tail call zeroext i1 @mi_option_is_enabled(i32 noundef 6) #7
  br i1 %6, label %7, label %14

7:                                                ; preds = %5
  %8 = load i64, ptr getelementptr inbounds nuw (i8, ptr @mi_os_mem_config, i64 8), align 8, !tbaa !13
  %9 = urem i64 %0, %8
  %10 = icmp eq i64 %9, 0
  br i1 %10, label %11, label %14

11:                                               ; preds = %7
  %12 = urem i64 %1, %8
  %13 = icmp eq i64 %12, 0
  br label %14

14:                                               ; preds = %7, %11, %2, %5
  %.0 = phi i1 [ false, %5 ], [ false, %2 ], [ false, %7 ], [ %13, %11 ]
  ret i1 %.0
}